target datalayout = "e-m:e-p270:32:32-p271:32:32-p272:64:64-i64:64-i128:128-f80:128-n8:16:32:64-S128"
target triple = "x86_64-pc-linux-gnu"

%struct.BEValue = type { i8, i32, ptr, ptr, ptr }
%struct.GenContext_ = type { i8, ptr, ptr, ptr, ptr, ptr, ptr, ptr, ptr, ptr, ptr, ptr, ptr, ptr, ptr, ptr, ptr, ptr, ptr, ptr, ptr, ptr, ptr, ptr, ptr, ptr, ptr, ptr, ptr, ptr, ptr, ptr, ptr, %struct.anon.85, i32, i32, %struct.DebugContext, ptr, ptr, ptr, %struct.BEValue, i8, %union.SourceSpan, ptr, ptr, ptr, ptr }
%struct.anon.85 = type { ptr, ptr, ptr }
%struct.DebugContext = type { i16, ptr, ptr, %struct.DebugFile_, ptr, ptr, ptr, ptr }
%struct.DebugFile_ = type { i16, ptr }
%union.SourceSpan = type { i64 }
%struct.ABIArgInfo_ = type { i32, i8, %struct.anon.23, %union.anon.24 }
%struct.anon.23 = type { i8 }
%union.anon.24 = type { %struct.anon.27 }
%struct.anon.27 = type { i8, i8, ptr, ptr }

@.str.65 = private unnamed_addr constant [7 x i8] c"ptradd\00", align 1
@.str.66 = private unnamed_addr constant [10 x i8] c"ptroffset\00", align 1

; Function Attrs: nounwind uwtable
define dso_local ptr @llvm_emit_ptradd_inbounds_raw(ptr noundef %0, ptr noundef %1, ptr noundef %2, i64 noundef %3) #0 {
  %5 = alloca ptr, align 8
  %6 = alloca ptr, align 8
  %7 = alloca ptr, align 8
  %8 = alloca ptr, align 8
  %9 = alloca i64, align 8
  store ptr %0, ptr %6, align 8
  store ptr %1, ptr %7, align 8
  store ptr %2, ptr %8, align 8
  store i64 %3, ptr %9, align 8
  %10 = load ptr, ptr %8, align 8
  %11 = call i32 @LLVMIsConstant(ptr noundef %10)
  %12 = icmp ne i32 %11, 0
  br i1 %12, label %13, label %19

13:                                               ; preds = %4
  %14 = load ptr, ptr %8, align 8
  %15 = call i32 @LLVMIsNull(ptr noundef %14)
  %16 = icmp ne i32 %15, 0
  br i1 %16, label %17, label %19

17:                                               ; preds = %13
  %18 = load ptr, ptr %7, align 8
  store ptr %18, ptr %5, align 8
  br label %43

19:                                               ; preds = %13, %4
  %20 = load i64, ptr %9, align 8
  %21 = icmp eq i64 %20, 1
  br i1 %21, label %22, label %31

22:                                               ; preds = %19
  %23 = load ptr, ptr %6, align 8
  %24 = getelementptr inbounds %struct.GenContext_, ptr %23, i32 0, i32 8
  %25 = load ptr, ptr %24, align 8
  %26 = load ptr, ptr %6, align 8
  %27 = getelementptr inbounds %struct.GenContext_, ptr %26, i32 0, i32 21
  %28 = load ptr, ptr %27, align 8
  %29 = load ptr, ptr %7, align 8
  %30 = call ptr @LLVMBuildInBoundsGEP2(ptr noundef %25, ptr noundef %28, ptr noundef %29, ptr noundef %8, i32 noundef 1, ptr noundef @.str.65)
  store ptr %30, ptr %5, align 8
  br label %43

31:                                               ; preds = %19
  %32 = load ptr, ptr %6, align 8
  %33 = getelementptr inbounds %struct.GenContext_, ptr %32, i32 0, i32 8
  %34 = load ptr, ptr %33, align 8
  %35 = load ptr, ptr %6, align 8
  %36 = getelementptr inbounds %struct.GenContext_, ptr %35, i32 0, i32 21
  %37 = load ptr, ptr %36, align 8
  %38 = load i64, ptr %9, align 8
  %39 = trunc i64 %38 to i32
  %40 = call ptr @LLVMArrayType(ptr noundef %37, i32 noundef %39)
  %41 = load ptr, ptr %7, align 8
  %42 = call ptr @LLVMBuildInBoundsGEP2(ptr noundef %34, ptr noundef %40, ptr noundef %41, ptr noundef %8, i32 noundef 1, ptr noundef @.str.66)
  store ptr %42, ptr %5, align 8
  br label %43

43:                                               ; preds = %31, %22, %17
  %44 = load ptr, ptr %5, align 8
  ret ptr %44
}

; Function Attrs: nounwind uwtable
define dso_local ptr @llvm_emit_const_ptradd_inbounds_raw(ptr noundef %0, ptr noundef %1, i64 noundef %2) #0 {
  %4 = alloca ptr, align 8
  %5 = alloca ptr, align 8
  %6 = alloca i64, align 8
  store ptr %0, ptr %4, align 8
  store ptr %1, ptr %5, align 8
  store i64 %2, ptr %6, align 8
  %7 = load ptr, ptr %4, align 8
  %8 = load ptr, ptr %5, align 8
  %9 = load ptr, ptr %4, align 8
  %10 = getelementptr inbounds %struct.GenContext_, ptr %9, i32 0, i32 24
  %11 = load ptr, ptr %10, align 8
  %12 = load i64, ptr %6, align 8
  %13 = call ptr @LLVMConstInt(ptr noundef %11, i64 noundef %12, i32 noundef 0)
  %14 = call ptr @llvm_emit_ptradd_inbounds_raw(ptr noundef %7, ptr noundef %8, ptr noundef %13, i64 noundef 1)
  ret ptr %14
}

; Function Attrs: nounwind uwtable
define dso_local ptr @llvm_coerce_expand_hi_offset(ptr noundef %0, ptr noundef %1, ptr noundef %2, ptr noundef %3) #0 {
  %5 = alloca i32, align 4
  %6 = alloca i32, align 4
  %7 = alloca i32, align 4
  %8 = alloca i32, align 4
  %9 = alloca ptr, align 8
  %10 = alloca ptr, align 8
  %11 = alloca ptr, align 8
  %12 = alloca ptr, align 8
  %13 = alloca ptr, align 8
  %14 = alloca ptr, align 8
  store ptr %0, ptr %10, align 8
  store ptr %1, ptr %11, align 8
  store ptr %2, ptr %12, align 8
  store ptr %3, ptr %13, align 8
  %15 = load ptr, ptr %10, align 8
  %16 = load ptr, ptr %12, align 8
  %17 = getelementptr inbounds %struct.ABIArgInfo_, ptr %16, i32 0, i32 3
  %18 = getelementptr inbounds %struct.anon.27, ptr %17, i32 0, i32 3
  %19 = load ptr, ptr %18, align 8
  %20 = call ptr @llvm_get_type(ptr noundef %15, ptr noundef %19)
  store ptr %20, ptr %14, align 8
  %21 = load ptr, ptr %12, align 8
  %22 = getelementptr inbounds %struct.ABIArgInfo_, ptr %21, i32 0, i32 3
  %23 = getelementptr inbounds %struct.anon.27, ptr %22, i32 0, i32 1
  %24 = load i8, ptr %23, align 1
  %25 = trunc i8 %24 to i1
  br i1 %25, label %26, label %57

26:                                               ; preds = %4
  %27 = load ptr, ptr %13, align 8
  %28 = load i32, ptr %27, align 4
  %29 = load ptr, ptr %13, align 8
  %30 = load i32, ptr %29, align 4
  %31 = load ptr, ptr %12, align 8
  %32 = getelementptr inbounds %struct.ABIArgInfo_, ptr %31, i32 0, i32 3
  %33 = getelementptr inbounds %struct.anon.27, ptr %32, i32 0, i32 0
  %34 = load i8, ptr %33, align 8
  %35 = zext i8 %34 to i32
  %36 = add i32 %30, %35
  store i32 %28, ptr %5, align 4
  store i32 %36, ptr %6, align 4
  %37 = load i32, ptr %5, align 4
  %38 = load i32, ptr %6, align 4
  %39 = or i32 %37, %38
  %40 = load i32, ptr %5, align 4
  %41 = load i32, ptr %6, align 4
  %42 = or i32 %40, %41
  %43 = xor i32 %42, -1
  %44 = add i32 1, %43
  %45 = and i32 %39, %44
  %46 = load ptr, ptr %13, align 8
  store i32 %45, ptr %46, align 4
  %47 = load ptr, ptr %10, align 8
  %48 = load ptr, ptr %11, align 8
  %49 = load ptr, ptr %48, align 8
  %50 = load ptr, ptr %12, align 8
  %51 = getelementptr inbounds %struct.ABIArgInfo_, ptr %50, i32 0, i32 3
  %52 = getelementptr inbounds %struct.anon.27, ptr %51, i32 0, i32 0
  %53 = load i8, ptr %52, align 8
  %54 = zext i8 %53 to i64
  %55 = call ptr @llvm_emit_const_ptradd_inbounds_raw(ptr noundef %47, ptr noundef %49, i64 noundef %54)
  %56 = load ptr, ptr %14, align 8
  store ptr %56, ptr %9, align 8
  br label %99

57:                                               ; preds = %4
  %58 = load ptr, ptr %13, align 8
  %59 = load i32, ptr %58, align 4
  %60 = load ptr, ptr %13, align 8
  %61 = load i32, ptr %60, align 4
  %62 = load ptr, ptr %10, align 8
  %63 = load ptr, ptr %14, align 8
  %64 = call i32 @llvm_store_size(ptr noundef %62, ptr noundef %63)
  %65 = load ptr, ptr %12, align 8
  %66 = getelementptr inbounds %struct.ABIArgInfo_, ptr %65, i32 0, i32 3
  %67 = getelementptr inbounds %struct.anon.27, ptr %66, i32 0, i32 0
  %68 = load i8, ptr %67, align 8
  %69 = zext i8 %68 to i32
  %70 = mul i32 %64, %69
  %71 = add i32 %61, %70
  store i32 %59, ptr %7, align 4
  store i32 %71, ptr %8, align 4
  %72 = load i32, ptr %7, align 4
  %73 = load i32, ptr %8, align 4
  %74 = or i32 %72, %73
  %75 = load i32, ptr %7, align 4
  %76 = load i32, ptr %8, align 4
  %77 = or i32 %75, %76
  %78 = xor i32 %77, -1
  %79 = add i32 1, %78
  %80 = and i32 %74, %79
  %81 = load ptr, ptr %13, align 8
  store i32 %80, ptr %81, align 4
  %82 = load ptr, ptr %10, align 8
  %83 = load ptr, ptr %11, align 8
  %84 = load ptr, ptr %83, align 8
  %85 = load ptr, ptr %12, align 8
  %86 = getelementptr inbounds %struct.ABIArgInfo_, ptr %85, i32 0, i32 3
  %87 = getelementptr inbounds %struct.anon.27, ptr %86, i32 0, i32 3
  %88 = load ptr, ptr %87, align 8
  %89 = call i32 @type_size(ptr noundef %88)
  %90 = load ptr, ptr %12, align 8
  %91 = getelementptr inbounds %struct.ABIArgInfo_, ptr %90, i32 0, i32 3
  %92 = getelementptr inbounds %struct.anon.27, ptr %91, i32 0, i32 0
  %93 = load i8, ptr %92, align 8
  %94 = zext i8 %93 to i32
  %95 = mul i32 %89, %94
  %96 = zext i32 %95 to i64
  %97 = call ptr @llvm_emit_const_ptradd_inbounds_raw(ptr noundef %82, ptr noundef %84, i64 noundef %96)
  %98 = load ptr, ptr %14, align 8
  store ptr %98, ptr %9, align 8
  br label %99

99:                                               ; preds = %57, %26
  %100 = load ptr, ptr %9, align 8
  ret ptr %100
}