; Function Attrs: nounwind uwtable
define dso_local ptr @llvm_coerce_expand_hi_offset(ptr noundef %0, ptr nocapture noundef readonly %1, ptr nocapture noundef readonly %2, ptr nocapture noundef %3) local_unnamed_addr #0 {
  %5 = alloca ptr, align 8
  %6 = alloca ptr, align 8
  %7 = getelementptr inbounds i8, ptr %2, i64 8
  %8 = getelementptr inbounds i8, ptr %2, i64 24
  %9 = load ptr, ptr %8, align 8
  %10 = tail call ptr @llvm_get_type(ptr noundef %0, ptr noundef %9) #10
  %11 = getelementptr inbounds i8, ptr %2, i64 9
  %12 = load i8, ptr %11, align 1
  %13 = trunc i8 %12 to i1
  %14 = load i32, ptr %3, align 4
  br i1 %13, label %15, label %37

15:                                               ; preds = %4
  %16 = load i8, ptr %7, align 8
  %17 = zext i8 %16 to i32
  %18 = add i32 %14, %17
  %19 = or i32 %18, %14
  %20 = sub i32 0, %19
  %21 = and i32 %19, %20
  store i32 %21, ptr %3, align 4
  %22 = load ptr, ptr %1, align 8
  %23 = load i8, ptr %7, align 8
  %24 = zext i8 %23 to i64
  %25 = getelementptr inbounds i8, ptr %0, i64 192
  %26 = load ptr, ptr %25, align 8
  %27 = tail call ptr @LLVMConstInt(ptr noundef %26, i64 noundef %24, i32 noundef 0) #10
  call void @llvm.lifetime.start.p0(i64 8, ptr nonnull %6)
  store ptr %27, ptr %6, align 8
  %28 = tail call i32 @LLVMIsConstant(ptr noundef %27) #10
  %.not.i.i = icmp eq i32 %28, 0
  br i1 %.not.i.i, label %31, label %29

29:                                               ; preds = %15
  %30 = tail call i32 @LLVMIsNull(ptr noundef %27) #10
  %.not10.i.i = icmp eq i32 %30, 0
  br i1 %.not10.i.i, label %31, label %llvm_emit_const_ptradd_inbounds_raw.exit

31:                                               ; preds = %29, %15
  %32 = getelementptr inbounds i8, ptr %0, i64 64
  %33 = load ptr, ptr %32, align 8
  %34 = getelementptr inbounds i8, ptr %0, i64 168
  %35 = load ptr, ptr %34, align 8
  %36 = call ptr @LLVMBuildInBoundsGEP2(ptr noundef %33, ptr noundef %35, ptr noundef %22, ptr noundef nonnull %6, i32 noundef 1, ptr noundef nonnull @.str.65) #10
  br label %llvm_emit_const_ptradd_inbounds_raw.exit

llvm_emit_const_ptradd_inbounds_raw.exit:         ; preds = %29, %31
  call void @llvm.lifetime.end.p0(i64 8, ptr nonnull %6)
  br label %65

37:                                               ; preds = %4
  %38 = tail call i32 @llvm_store_size(ptr noundef %0, ptr noundef %10) #10
  %39 = load i8, ptr %7, align 8
  %40 = zext i8 %39 to i32
  %41 = mul i32 %38, %40
  %42 = add i32 %41, %14
  %43 = or i32 %42, %14
  %44 = sub i32 0, %43
  %45 = and i32 %43, %44
  store i32 %45, ptr %3, align 4
  %46 = load ptr, ptr %1, align 8
  %47 = load ptr, ptr %8, align 8
  %48 = tail call i32 @type_size(ptr noundef %47) #10
  %49 = load i8, ptr %7, align 8
  %50 = zext i8 %49 to i32
  %51 = mul i32 %48, %50
  %52 = zext i32 %51 to i64
  %53 = getelementptr inbounds i8, ptr %0, i64 192
  %54 = load ptr, ptr %53, align 8
  %55 = tail call ptr @LLVMConstInt(ptr noundef %54, i64 noundef %52, i32 noundef 0) #10
  call void @llvm.lifetime.start.p0(i64 8, ptr nonnull %5)
  store ptr %55, ptr %5, align 8
  %56 = tail call i32 @LLVMIsConstant(ptr noundef %55) #10
  %.not.i.i30 = icmp eq i32 %56, 0
  br i1 %.not.i.i30, label %59, label %57

57:                                               ; preds = %37
  %58 = tail call i32 @LLVMIsNull(ptr noundef %55) #10
  %.not10.i.i31 = icmp eq i32 %58, 0
  br i1 %.not10.i.i31, label %59, label %llvm_emit_const_ptradd_inbounds_raw.exit33

59:                                               ; preds = %57, %37
  %60 = getelementptr inbounds i8, ptr %0, i64 64
  %61 = load ptr, ptr %60, align 8
  %62 = getelementptr inbounds i8, ptr %0, i64 168
  %63 = load ptr, ptr %62, align 8
  %64 = call ptr @LLVMBuildInBoundsGEP2(ptr noundef %61, ptr noundef %63, ptr noundef %46, ptr noundef nonnull %5, i32 noundef 1, ptr noundef nonnull @.str.65) #10
  br label %llvm_emit_const_ptradd_inbounds_raw.exit33

llvm_emit_const_ptradd_inbounds_raw.exit33:       ; preds = %57, %59
  call void @llvm.lifetime.end.p0(i64 8, ptr nonnull %5)
  br label %65

65:                                               ; preds = %llvm_emit_const_ptradd_inbounds_raw.exit33, %llvm_emit_const_ptradd_inbounds_raw.exit
  ret ptr %10
}